target datalayout = "e-m:e-p270:32:32-p271:32:32-p272:64:64-i64:64-i128:128-f80:128-n8:16:32:64-S128"
target triple = "x86_64-pc-linux-gnu"

%struct.HTable = type { i32, ptr }
%struct.Module_ = type { ptr, ptr, ptr, i16, i32, ptr, %struct.HTable, ptr, ptr, ptr, ptr, ptr, ptr, ptr, ptr, ptr }
%union.SourceSpan = type { i64 }
%struct.VHeader_ = type { i32, i32, [0 x i8] }
%struct.CompilationUnit_ = type { ptr, ptr, ptr, ptr, ptr, ptr, ptr, ptr, ptr, ptr, i32, ptr, i8, i8, i8, i8, ptr, ptr, ptr, ptr, ptr, ptr, ptr, ptr, ptr, ptr, ptr, ptr, %struct.HTable, i32, ptr, ptr, %struct.anon.85 }
%struct.anon.85 = type { ptr, ptr }
%struct.Decl_ = type { ptr, ptr, %union.SourceSpan, i64, %union.anon, i32, %union.anon.0, i64, ptr, ptr, ptr, %union.anon.1 }
%union.anon = type { ptr }
%union.anon.0 = type { i16 }
%union.anon.1 = type { %struct.FuncDecl }
%struct.FuncDecl = type { i32, [4 x i8], %struct.Signature_, i32, i32, %union.anon.8 }
%struct.Signature_ = type <{ %struct.CalleeAttributes, i16, i8, i32, i32, [4 x i8], ptr }>
%struct.CalleeAttributes = type { i8 }
%union.anon.8 = type { %struct.anon.9 }
%struct.anon.9 = type { i16, %union.anon.10 }
%union.anon.10 = type { ptr }
%struct.SemaContext_ = type { ptr, ptr, ptr, %struct.CallEnv, ptr, %union.SourceSpan, i32, i32, ptr, i32, ptr, i32, i32, ptr, ptr, i32, %struct.anon.86, ptr, ptr, ptr, %struct.DynamicScope_, ptr }
%struct.CallEnv = type { i16, ptr, %union.anon.60 }
%union.anon.60 = type { ptr }
%struct.anon.86 = type { i32, ptr, ptr, ptr, ptr, ptr, ptr, ptr, ptr, ptr, i8, ptr }
%struct.DynamicScope_ = type { i32, i8, i32, i32, i32, i32, i32, ptr, i32 }

; Function Attrs: nounwind uwtable
define dso_local void @sema_analysis_pass_ct_assert(ptr noundef %0) #0 {
  %2 = alloca i32, align 4
  %3 = alloca ptr, align 8
  %4 = alloca ptr, align 8
  %5 = alloca i32, align 4
  %6 = alloca ptr, align 8
  %7 = alloca ptr, align 8
  %8 = alloca ptr, align 8
  %9 = alloca i32, align 4
  %10 = alloca i32, align 4
  %11 = alloca %struct.SemaContext_, align 8
  %12 = alloca ptr, align 8
  %13 = alloca i8, align 1
  %14 = alloca i32, align 4
  %15 = alloca i32, align 4
  store ptr %0, ptr %8, align 8
  br label %16

16:                                               ; preds = %1
  br label %17

17:                                               ; preds = %16
  store i32 0, ptr %9, align 4
  %18 = load ptr, ptr %8, align 8
  %19 = getelementptr inbounds %struct.Module_, ptr %18, i32 0, i32 7
  %20 = load ptr, ptr %19, align 8
  store ptr %20, ptr %3, align 8
  %21 = load ptr, ptr %3, align 8
  %22 = icmp ne ptr %21, null
  br i1 %22, label %24, label %23

23:                                               ; preds = %17
  store i32 0, ptr %2, align 4
  br label %29

24:                                               ; preds = %17
  %25 = load ptr, ptr %3, align 8
  store ptr %25, ptr %4, align 8
  %26 = load ptr, ptr %4, align 8
  %27 = getelementptr inbounds %struct.VHeader_, ptr %26, i64 -1
  %28 = load i32, ptr %27, align 4
  store i32 %28, ptr %2, align 4
  br label %29

29:                                               ; preds = %24, %23
  %30 = load i32, ptr %2, align 4
  store i32 %30, ptr %10, align 4
  br label %31

31:                                               ; preds = %81, %29
  %32 = load i32, ptr %9, align 4
  %33 = load i32, ptr %10, align 4
  %34 = icmp ult i32 %32, %33
  br i1 %34, label %35, label %84

35:                                               ; preds = %31
  %36 = load ptr, ptr %8, align 8
  %37 = getelementptr inbounds %struct.Module_, ptr %36, i32 0, i32 7
  %38 = load ptr, ptr %37, align 8
  %39 = load i32, ptr %9, align 4
  %40 = zext i32 %39 to i64
  %41 = getelementptr inbounds ptr, ptr %38, i64 %40
  %42 = load ptr, ptr %41, align 8
  call void @sema_context_init(ptr noundef %11, ptr noundef %42)
  %43 = getelementptr inbounds %struct.SemaContext_, ptr %11, i32 0, i32 1
  %44 = load ptr, ptr %43, align 8
  %45 = getelementptr inbounds %struct.CompilationUnit_, ptr %44, i32 0, i32 18
  %46 = load ptr, ptr %45, align 8
  store ptr %46, ptr %12, align 8
  store i8 1, ptr %13, align 1
  store i32 0, ptr %14, align 4
  %47 = load ptr, ptr %12, align 8
  store ptr %47, ptr %6, align 8
  %48 = load ptr, ptr %6, align 8
  %49 = icmp ne ptr %48, null
  br i1 %49, label %51, label %50

50:                                               ; preds = %35
  store i32 0, ptr %5, align 4
  br label %56

51:                                               ; preds = %35
  %52 = load ptr, ptr %6, align 8
  store ptr %52, ptr %7, align 8
  %53 = load ptr, ptr %7, align 8
  %54 = getelementptr inbounds %struct.VHeader_, ptr %53, i64 -1
  %55 = load i32, ptr %54, align 4
  store i32 %55, ptr %5, align 4
  br label %56

56:                                               ; preds = %51, %50
  %57 = load i32, ptr %5, align 4
  store i32 %57, ptr %15, align 4
  br label %58

58:                                               ; preds = %73, %56
  %59 = load i32, ptr %14, align 4
  %60 = load i32, ptr %15, align 4
  %61 = icmp ult i32 %59, %60
  br i1 %61, label %62, label %76

62:                                               ; preds = %58
  %63 = load ptr, ptr %12, align 8
  %64 = load i32, ptr %14, align 4
  %65 = zext i32 %64 to i64
  %66 = getelementptr inbounds ptr, ptr %63, i64 %65
  %67 = load ptr, ptr %66, align 8
  %68 = getelementptr inbounds %struct.Decl_, ptr %67, i32 0, i32 11
  %69 = load ptr, ptr %68, align 8
  %70 = call zeroext i1 @sema_analyse_ct_assert_stmt(ptr noundef %11, ptr noundef %69)
  br i1 %70, label %72, label %71

71:                                               ; preds = %62
  store i8 0, ptr %13, align 1
  br label %76

72:                                               ; preds = %62
  br label %73

73:                                               ; preds = %72
  %74 = load i32, ptr %14, align 4
  %75 = add i32 %74, 1
  store i32 %75, ptr %14, align 4
  br label %58, !llvm.loop !26

76:                                               ; preds = %71, %58
  call void @sema_context_destroy(ptr noundef %11)
  %77 = load i8, ptr %13, align 1
  %78 = trunc i8 %77 to i1
  br i1 %78, label %80, label %79

79:                                               ; preds = %76
  br label %84

80:                                               ; preds = %76
  br label %81

81:                                               ; preds = %80
  %82 = load i32, ptr %9, align 4
  %83 = add i32 %82, 1
  store i32 %83, ptr %9, align 4
  br label %31, !llvm.loop !27

84:                                               ; preds = %79, %31
  br label %85

85:                                               ; preds = %84
  br label %86

86:                                               ; preds = %85
  ret void
}